target datalayout = "e-m:e-p270:32:32-p271:32:32-p272:64:64-i64:64-i128:128-f80:128-n8:16:32:64-S128"
target triple = "x86_64-pc-linux-gnu"

%struct.stbds_string_arena = type { ptr, i64, i8, i8 }
%struct.stbds_string_block = type { ptr, [8 x i8] }

; Function Attrs: nounwind uwtable
define void @stbds_strreset(ptr noundef %0) #0 {
  %2 = alloca ptr, align 8
  %3 = alloca ptr, align 8
  %4 = alloca ptr, align 8
  store ptr %0, ptr %2, align 8, !tbaa !49
  call void @llvm.lifetime.start.p0(i64 8, ptr %3) #7
  call void @llvm.lifetime.start.p0(i64 8, ptr %4) #7
  %5 = load ptr, ptr %2, align 8, !tbaa !49
  %6 = getelementptr inbounds nuw %struct.stbds_string_arena, ptr %5, i32 0, i32 0
  %7 = load ptr, ptr %6, align 8, !tbaa !51
  store ptr %7, ptr %3, align 8, !tbaa !29
  br label %8

8:                                                ; preds = %11, %1
  %9 = load ptr, ptr %3, align 8, !tbaa !29
  %10 = icmp ne ptr %9, null
  br i1 %10, label %11, label %17

11:                                               ; preds = %8
  %12 = load ptr, ptr %3, align 8, !tbaa !29
  %13 = getelementptr inbounds nuw %struct.stbds_string_block, ptr %12, i32 0, i32 0
  %14 = load ptr, ptr %13, align 8, !tbaa !52
  store ptr %14, ptr %4, align 8, !tbaa !29
  %15 = load ptr, ptr %3, align 8, !tbaa !29
  call void @free(ptr noundef %15) #7
  %16 = load ptr, ptr %4, align 8, !tbaa !29
  store ptr %16, ptr %3, align 8, !tbaa !29
  br label %8, !llvm.loop !54

17:                                               ; preds = %8
  %18 = load ptr, ptr %2, align 8, !tbaa !49
  call void @llvm.memset.p0.i64(ptr align 8 %18, i8 0, i64 24, i1 false)
  call void @llvm.lifetime.end.p0(i64 8, ptr %4) #7
  call void @llvm.lifetime.end.p0(i64 8, ptr %3) #7
  ret void
}