; Function Attrs: nounwind uwtable
define void @stbds_strreset(ptr noundef captures(none) %0) local_unnamed_addr #13 {
  %2 = load ptr, ptr %0, align 8, !tbaa !40
  %.not6 = icmp eq ptr %2, null
  br i1 %.not6, label %._crit_edge, label %.lr.ph

.lr.ph:                                           ; preds = %1, %.lr.ph
  %.07 = phi ptr [ %3, %.lr.ph ], [ %2, %1 ]
  %3 = load ptr, ptr %.07, align 8, !tbaa !41
  tail call void @free(ptr noundef nonnull %.07) #21
  %.not = icmp eq ptr %3, null
  br i1 %.not, label %._crit_edge, label %.lr.ph, !llvm.loop !43

._crit_edge:                                      ; preds = %.lr.ph, %1
  tail call void @llvm.memset.p0.i64(ptr noundef nonnull align 8 dereferenceable(24) %0, i8 0, i64 24, i1 false)
  ret void
}